; Function Attrs: mustprogress uwtable
define noundef zeroext i1 @_ZN4base4File7GetInfoEPNS0_4InfoE(ptr noundef nonnull align 8 dereferenceable(50) %0, ptr noundef writeonly captures(none) %1) local_unnamed_addr #0 align 2 personality ptr @__gxx_personality_v0 {
  %3 = alloca %"class.base::FileTracing::ScopedTrace", align 8
  %4 = alloca %struct.stat64, align 8
  call void @llvm.lifetime.start.p0(i64 16, ptr nonnull %3) #14
  call void @_ZN4base11FileTracing11ScopedTraceC1Ev(ptr noundef nonnull align 8 dereferenceable(16) %3)
  %5 = invoke noundef zeroext i1 @_ZN4base11FileTracing17IsCategoryEnabledEv()
          to label %6 unwind label %8

6:                                                ; preds = %2
  br i1 %5, label %7, label %10

7:                                                ; preds = %6
  invoke void @_ZN4base11FileTracing11ScopedTrace10InitializeEPKcPKNS_4FileEl(ptr noundef nonnull align 8 dereferenceable(16) %3, ptr noundef nonnull @.str.12, ptr noundef nonnull %0, i64 noundef 0)
          to label %10 unwind label %8

8:                                                ; preds = %7, %2
  %9 = landingpad { ptr, i32 }
          cleanup
  br label %52

10:                                               ; preds = %7, %6
  call void @llvm.lifetime.start.p0(i64 144, ptr nonnull %4) #14
  %11 = load i32, ptr %0, align 8, !tbaa !27
  %12 = call noundef i32 @fstat64(i32 noundef %11, ptr noundef nonnull %4) #14
  %.not = icmp eq i32 %12, 0
  br i1 %.not, label %15, label %51

13:                                               ; preds = %.noexc10, %.noexc9, %.noexc8, %.noexc7, %.noexc, %15
  %14 = landingpad { ptr, i32 }
          cleanup
  call void @llvm.lifetime.end.p0(i64 144, ptr nonnull %4) #14
  br label %52

15:                                               ; preds = %10
  %16 = getelementptr inbounds nuw i8, ptr %4, i64 24
  %17 = load i32, ptr %16, align 8, !tbaa !3
  %18 = and i32 %17, 61440
  %19 = icmp eq i32 %18, 16384
  %20 = getelementptr inbounds nuw i8, ptr %1, i64 8
  %21 = zext i1 %19 to i8
  store i8 %21, ptr %20, align 8, !tbaa !10
  %22 = icmp eq i32 %18, 40960
  %23 = getelementptr inbounds nuw i8, ptr %1, i64 9
  %24 = zext i1 %22 to i8
  store i8 %24, ptr %23, align 1, !tbaa !15
  %25 = getelementptr inbounds nuw i8, ptr %4, i64 48
  %26 = load i64, ptr %25, align 8, !tbaa !16
  store i64 %26, ptr %1, align 8, !tbaa !17
  %27 = getelementptr inbounds nuw i8, ptr %4, i64 88
  %28 = load i64, ptr %27, align 8, !tbaa !18
  %29 = getelementptr inbounds nuw i8, ptr %4, i64 96
  %30 = load i64, ptr %29, align 8, !tbaa !19
  %31 = getelementptr inbounds nuw i8, ptr %4, i64 72
  %32 = load i64, ptr %31, align 8, !tbaa !20
  %33 = getelementptr inbounds nuw i8, ptr %4, i64 80
  %34 = load i64, ptr %33, align 8, !tbaa !21
  %35 = getelementptr inbounds nuw i8, ptr %4, i64 104
  %36 = load i64, ptr %35, align 8, !tbaa !22
  %37 = getelementptr inbounds nuw i8, ptr %4, i64 112
  %38 = load i64, ptr %37, align 8, !tbaa !23
  %39 = invoke i64 @_ZN4base4Time9FromTimeTEl(i64 noundef %28)
          to label %.noexc unwind label %13

.noexc:                                           ; preds = %15
  %40 = sdiv i64 %30, 1000
  %41 = invoke noundef i64 @_ZN4base13time_internal12SaturatedAddENS_9TimeDeltaEl(i64 %40, i64 noundef %39)
          to label %.noexc7 unwind label %13

.noexc7:                                          ; preds = %.noexc
  %42 = getelementptr inbounds nuw i8, ptr %1, i64 16
  store i64 %41, ptr %42, align 8
  %43 = invoke i64 @_ZN4base4Time9FromTimeTEl(i64 noundef %32)
          to label %.noexc8 unwind label %13

.noexc8:                                          ; preds = %.noexc7
  %44 = sdiv i64 %34, 1000
  %45 = invoke noundef i64 @_ZN4base13time_internal12SaturatedAddENS_9TimeDeltaEl(i64 %44, i64 noundef %43)
          to label %.noexc9 unwind label %13

.noexc9:                                          ; preds = %.noexc8
  %46 = getelementptr inbounds nuw i8, ptr %1, i64 24
  store i64 %45, ptr %46, align 8
  %47 = invoke i64 @_ZN4base4Time9FromTimeTEl(i64 noundef %36)
          to label %.noexc10 unwind label %13

.noexc10:                                         ; preds = %.noexc9
  %48 = sdiv i64 %38, 1000
  %49 = invoke noundef i64 @_ZN4base13time_internal12SaturatedAddENS_9TimeDeltaEl(i64 %48, i64 noundef %47)
          to label %_ZN4base4File4Info8FromStatERK6stat64.exit unwind label %13

_ZN4base4File4Info8FromStatERK6stat64.exit:       ; preds = %.noexc10
  %50 = getelementptr inbounds nuw i8, ptr %1, i64 32
  store i64 %49, ptr %50, align 8
  br label %51

51:                                               ; preds = %_ZN4base4File4Info8FromStatERK6stat64.exit, %10
  call void @llvm.lifetime.end.p0(i64 144, ptr nonnull %4) #14
  call void @_ZN4base11FileTracing11ScopedTraceD1Ev(ptr noundef nonnull align 8 dereferenceable(16) %3) #14
  call void @llvm.lifetime.end.p0(i64 16, ptr nonnull %3) #14
  ret i1 %.not

52:                                               ; preds = %13, %8
  %.pn = phi { ptr, i32 } [ %14, %13 ], [ %9, %8 ]
  call void @_ZN4base11FileTracing11ScopedTraceD1Ev(ptr noundef nonnull align 8 dereferenceable(16) %3) #14
  call void @llvm.lifetime.end.p0(i64 16, ptr nonnull %3) #14
  resume { ptr, i32 } %.pn
}